; Function Attrs: nounwind uwtable
define dso_local noundef ptr @curl_easy_nextheader(ptr noundef %0, i32 noundef %1, i32 noundef %2, ptr noundef readonly %3) local_unnamed_addr #0 {
  %5 = getelementptr inbounds nuw i8, ptr %0, i64 3144
  %6 = load i32, ptr %5, align 8, !tbaa !4
  %7 = icmp sgt i32 %2, %6
  br i1 %7, label %.thread, label %8

8:                                                ; preds = %4
  %9 = icmp eq i32 %2, -1
  %spec.select = select i1 %9, i32 %6, i32 %2
  %.not = icmp eq ptr %3, null
  br i1 %.not, label %15, label %10

10:                                               ; preds = %8
  %11 = getelementptr inbounds nuw i8, ptr %3, i64 40
  %12 = load ptr, ptr %11, align 8, !tbaa !91
  %.not53 = icmp eq ptr %12, null
  br i1 %.not53, label %.thread, label %13

13:                                               ; preds = %10
  %14 = tail call ptr @Curl_node_next(ptr noundef nonnull %12) #5
  br label %18

15:                                               ; preds = %8
  %16 = getelementptr inbounds nuw i8, ptr %0, i64 4560
  %17 = tail call ptr @Curl_llist_head(ptr noundef nonnull %16) #5
  br label %18

18:                                               ; preds = %15, %13
  %.044 = phi ptr [ %14, %13 ], [ %17, %15 ]
  %.not54 = icmp eq ptr %.044, null
  br i1 %.not54, label %.thread, label %.preheader

.preheader:                                       ; preds = %18, %28
  %.2 = phi ptr [ %29, %28 ], [ %.044, %18 ]
  %19 = tail call ptr @Curl_node_elem(ptr noundef nonnull %.2) #5
  %20 = getelementptr inbounds nuw i8, ptr %19, i64 52
  %21 = load i8, ptr %20, align 4, !tbaa !79
  %22 = zext i8 %21 to i32
  %23 = and i32 %1, %22
  %.not55 = icmp eq i32 %23, 0
  br i1 %.not55, label %28, label %24

24:                                               ; preds = %.preheader
  %25 = getelementptr inbounds nuw i8, ptr %19, i64 48
  %26 = load i32, ptr %25, align 8, !tbaa !80
  %27 = icmp eq i32 %26, %spec.select
  br i1 %27, label %30, label %28

28:                                               ; preds = %24, %.preheader
  %29 = tail call ptr @Curl_node_next(ptr noundef nonnull %.2) #5
  %.not56 = icmp eq ptr %29, null
  br i1 %.not56, label %.thread, label %.preheader, !llvm.loop !94

30:                                               ; preds = %24
  %31 = tail call ptr @Curl_node_elem(ptr noundef nonnull %.2) #5
  %32 = getelementptr inbounds nuw i8, ptr %0, i64 4560
  %33 = tail call ptr @Curl_llist_head(ptr noundef nonnull %32) #5
  %.not5866 = icmp eq ptr %33, null
  br i1 %.not5866, label %._crit_edge, label %.lr.ph

.lr.ph:                                           ; preds = %30
  %34 = getelementptr inbounds nuw i8, ptr %31, i64 32
  br label %35

35:                                               ; preds = %.lr.ph, %51
  %.04069 = phi i64 [ 0, %.lr.ph ], [ %spec.select62, %51 ]
  %.04168 = phi i64 [ 0, %.lr.ph ], [ %.142, %51 ]
  %.04367 = phi ptr [ %33, %.lr.ph ], [ %54, %51 ]
  %36 = tail call ptr @Curl_node_elem(ptr noundef nonnull %.04367) #5
  %37 = load ptr, ptr %34, align 8, !tbaa !77
  %38 = getelementptr inbounds nuw i8, ptr %36, i64 32
  %39 = load ptr, ptr %38, align 8, !tbaa !77
  %40 = tail call i32 @curl_strequal(ptr noundef %37, ptr noundef %39) #5
  %.not59 = icmp eq i32 %40, 0
  br i1 %.not59, label %51, label %41

41:                                               ; preds = %35
  %42 = getelementptr inbounds nuw i8, ptr %36, i64 48
  %43 = load i32, ptr %42, align 8, !tbaa !80
  %44 = icmp eq i32 %43, %spec.select
  br i1 %44, label %45, label %51

45:                                               ; preds = %41
  %46 = getelementptr inbounds nuw i8, ptr %36, i64 52
  %47 = load i8, ptr %46, align 4, !tbaa !79
  %48 = zext i8 %47 to i32
  %49 = and i32 %1, %48
  %.not60 = icmp ne i32 %49, 0
  %50 = zext i1 %.not60 to i64
  %spec.select61 = add i64 %.04168, %50
  br label %51

51:                                               ; preds = %45, %41, %35
  %.142 = phi i64 [ %.04168, %41 ], [ %.04168, %35 ], [ %spec.select61, %45 ]
  %52 = icmp eq ptr %.04367, %.2
  %53 = add i64 %.142, -1
  %spec.select62 = select i1 %52, i64 %53, i64 %.04069
  %54 = tail call ptr @Curl_node_next(ptr noundef nonnull %.04367) #5
  %.not58 = icmp eq ptr %54, null
  br i1 %.not58, label %._crit_edge, label %35, !llvm.loop !95

._crit_edge:                                      ; preds = %51, %30
  %.041.lcssa = phi i64 [ 0, %30 ], [ %.142, %51 ]
  %.040.lcssa = phi i64 [ 0, %30 ], [ %spec.select62, %51 ]
  %55 = getelementptr inbounds nuw i8, ptr %0, i64 4640
  %56 = getelementptr inbounds nuw i8, ptr %31, i64 32
  %57 = load ptr, ptr %56, align 8, !tbaa !77
  store ptr %57, ptr %55, align 8, !tbaa !84
  %58 = getelementptr inbounds nuw i8, ptr %31, i64 40
  %59 = load ptr, ptr %58, align 8, !tbaa !86
  %60 = getelementptr inbounds nuw i8, ptr %0, i64 4648
  store ptr %59, ptr %60, align 8, !tbaa !87
  %61 = getelementptr inbounds nuw i8, ptr %0, i64 4656
  store i64 %.041.lcssa, ptr %61, align 8, !tbaa !88
  %62 = getelementptr inbounds nuw i8, ptr %0, i64 4664
  store i64 %.040.lcssa, ptr %62, align 8, !tbaa !89
  %63 = getelementptr inbounds nuw i8, ptr %31, i64 52
  %64 = load i8, ptr %63, align 4, !tbaa !79
  %65 = zext i8 %64 to i32
  %66 = or disjoint i32 %65, 134217728
  %67 = getelementptr inbounds nuw i8, ptr %0, i64 4672
  store i32 %66, ptr %67, align 8, !tbaa !90
  %68 = getelementptr inbounds nuw i8, ptr %0, i64 4680
  store ptr %.2, ptr %68, align 8, !tbaa !91
  br label %.thread

.thread:                                          ; preds = %28, %18, %10, %4, %._crit_edge
  %.0 = phi ptr [ %55, %._crit_edge ], [ null, %4 ], [ null, %10 ], [ null, %18 ], [ null, %28 ]
  ret ptr %.0
}